target datalayout = "e-m:e-p270:32:32-p271:32:32-p272:64:64-i64:64-i128:128-f80:128-n8:16:32:64-S128"
target triple = "x86_64-unknown-linux-gnu"

%"class.icu_75::UnicodeString" = type { %"class.icu_75::Replaceable", %"union.icu_75::UnicodeString::StackBufferOrFields" }
%"class.icu_75::Replaceable" = type { %"class.icu_75::UObject" }
%"class.icu_75::UObject" = type { ptr }
%"union.icu_75::UnicodeString::StackBufferOrFields" = type { %struct.anon.0, [32 x i8] }
%struct.anon.0 = type { i16, i32, i32, ptr }
%"class.icu_75::numparse::impl::ParsedNumber" = type { %"class.icu_75::number::impl::DecimalQuantity", i32, i32, %"class.icu_75::UnicodeString", %"class.icu_75::UnicodeString", [4 x i16] }
%"class.icu_75::number::impl::DecimalQuantity" = type <{ %"class.icu_75::IFixedDecimal", i8, [3 x i8], i32, i32, i8, i8, [2 x i8], double, i32, i32, i32, i32, %union.anon, i8, i8, [6 x i8] }>
%"class.icu_75::IFixedDecimal" = type { ptr }
%union.anon = type { %struct.anon.1 }
%struct.anon.1 = type { ptr, i32 }

; Function Attrs: mustprogress uwtable
define void @_ZNK6icu_758numparse4impl15InfinityMatcher6acceptERNS_13StringSegmentERNS1_12ParsedNumberE(ptr noundef nonnull align 8 dereferenceable(80) %this, ptr noundef nonnull align 8 dereferenceable(17) %segment, ptr noundef nonnull align 8 dereferenceable(216) %result) unnamed_addr #0 align 2 {
entry:
  %this.addr = alloca ptr, align 8
  %segment.addr = alloca ptr, align 8
  %result.addr = alloca ptr, align 8
  store ptr %this, ptr %this.addr, align 8
  store ptr %segment, ptr %segment.addr, align 8
  store ptr %result, ptr %result.addr, align 8
  %0 = load ptr, ptr %result.addr, align 8
  %flags = getelementptr inbounds %"class.icu_75::numparse::impl::ParsedNumber", ptr %0, i32 0, i32 2
  %1 = load i32, ptr %flags, align 4
  %or = or i32 %1, 128
  store i32 %or, ptr %flags, align 4
  %2 = load ptr, ptr %result.addr, align 8
  %3 = load ptr, ptr %segment.addr, align 8
  call void @_ZN6icu_758numparse4impl12ParsedNumber16setCharsConsumedERKNS_13StringSegmentE(ptr noundef nonnull align 8 dereferenceable(216) %2, ptr noundef nonnull align 8 dereferenceable(17) %3)
  ret void
}